target datalayout = "e-m:e-p270:32:32-p271:32:32-p272:64:64-i64:64-i128:128-f80:128-n8:16:32:64-S128"
target triple = "x86_64-pc-linux-gnu"

%"struct.duckdb_re2::UGroup" = type { ptr, i32, ptr, i32, ptr, i32 }
%"class.duckdb_re2::StringPiece" = type { ptr, i64 }

@_ZN10duckdb_re211perl_groupsE = external global [0 x %"struct.duckdb_re2::UGroup"], align 8
@_ZN10duckdb_re215num_perl_groupsE = external constant i32, align 4

; Function Attrs: inlinehint mustprogress nounwind uwtable
define linkonce_odr hidden noundef zeroext i1 @_ZN10duckdb_re2eqERKNS_11StringPieceES2_(ptr noundef nonnull align 8 dereferenceable(16) %0, ptr noundef nonnull align 8 dereferenceable(16) %1) #3 comdat {
  %3 = alloca i1, align 1
  %4 = alloca ptr, align 8
  %5 = alloca ptr, align 8
  %6 = alloca i64, align 8
  %7 = alloca i32, align 4
  store ptr %0, ptr %4, align 8, !tbaa !12
  store ptr %1, ptr %5, align 8, !tbaa !12
  call void @llvm.lifetime.start.p0(i64 8, ptr %6) #19
  %8 = load ptr, ptr %4, align 8, !tbaa !12
  %9 = call noundef i64 @_ZNK10duckdb_re211StringPiece4sizeEv(ptr noundef nonnull align 8 dereferenceable(16) %8)
  store i64 %9, ptr %6, align 8, !tbaa !24
  %10 = load i64, ptr %6, align 8, !tbaa !24
  %11 = load ptr, ptr %5, align 8, !tbaa !12
  %12 = call noundef i64 @_ZNK10duckdb_re211StringPiece4sizeEv(ptr noundef nonnull align 8 dereferenceable(16) %11)
  %13 = icmp ne i64 %10, %12
  br i1 %13, label %14, label %15

14:                                               ; preds = %2
  store i1 false, ptr %3, align 1
  store i32 1, ptr %7, align 4
  br label %34

15:                                               ; preds = %2
  %16 = load ptr, ptr %4, align 8, !tbaa !12
  %17 = call noundef ptr @_ZNK10duckdb_re211StringPiece4dataEv(ptr noundef nonnull align 8 dereferenceable(16) %16)
  %18 = load ptr, ptr %5, align 8, !tbaa !12
  %19 = call noundef ptr @_ZNK10duckdb_re211StringPiece4dataEv(ptr noundef nonnull align 8 dereferenceable(16) %18)
  %20 = icmp eq ptr %17, %19
  br i1 %20, label %32, label %21

21:                                               ; preds = %15
  %22 = load i64, ptr %6, align 8, !tbaa !24
  %23 = icmp eq i64 %22, 0
  br i1 %23, label %32, label %24

24:                                               ; preds = %21
  %25 = load ptr, ptr %4, align 8, !tbaa !12
  %26 = call noundef ptr @_ZNK10duckdb_re211StringPiece4dataEv(ptr noundef nonnull align 8 dereferenceable(16) %25)
  %27 = load ptr, ptr %5, align 8, !tbaa !12
  %28 = call noundef ptr @_ZNK10duckdb_re211StringPiece4dataEv(ptr noundef nonnull align 8 dereferenceable(16) %27)
  %29 = load i64, ptr %6, align 8, !tbaa !24
  %30 = call i32 @memcmp(ptr noundef %26, ptr noundef %28, i64 noundef %29) #25
  %31 = icmp eq i32 %30, 0
  br label %32

32:                                               ; preds = %24, %21, %15
  %33 = phi i1 [ true, %21 ], [ true, %15 ], [ %31, %24 ]
  store i1 %33, ptr %3, align 1
  store i32 1, ptr %7, align 4
  br label %34

34:                                               ; preds = %32, %14
  call void @llvm.lifetime.end.p0(i64 8, ptr %6) #19
  %35 = load i1, ptr %3, align 1
  ret i1 %35
}

; Function Attrs: mustprogress nounwind uwtable
define linkonce_odr hidden void @_ZN10duckdb_re211StringPieceC2EPKc(ptr noundef nonnull align 8 dereferenceable(16) %0, ptr noundef %1) unnamed_addr #0 comdat align 2 {
  %3 = alloca ptr, align 8
  %4 = alloca ptr, align 8
  store ptr %0, ptr %3, align 8, !tbaa !12
  store ptr %1, ptr %4, align 8, !tbaa !23
  %5 = load ptr, ptr %3, align 8
  %6 = getelementptr inbounds nuw %"class.duckdb_re2::StringPiece", ptr %5, i32 0, i32 0
  %7 = load ptr, ptr %4, align 8, !tbaa !23
  store ptr %7, ptr %6, align 8, !tbaa !116
  %8 = getelementptr inbounds nuw %"class.duckdb_re2::StringPiece", ptr %5, i32 0, i32 1
  %9 = load ptr, ptr %4, align 8, !tbaa !23
  %10 = icmp eq ptr %9, null
  br i1 %10, label %11, label %12

11:                                               ; preds = %2
  br label %15

12:                                               ; preds = %2
  %13 = load ptr, ptr %4, align 8, !tbaa !23
  %14 = call i64 @strlen(ptr noundef %13) #25
  br label %15

15:                                               ; preds = %12, %11
  %16 = phi i64 [ 0, %11 ], [ %14, %12 ]
  store i64 %16, ptr %8, align 8, !tbaa !117
  ret void
}

; Function Attrs: mustprogress uwtable
define internal noundef ptr @_ZN10duckdb_re2L11LookupGroupERKNS_11StringPieceEPKNS_6UGroupEi(ptr noundef nonnull align 8 dereferenceable(16) %0, ptr noundef %1, i32 noundef %2) #1 {
  %4 = alloca ptr, align 8
  %5 = alloca ptr, align 8
  %6 = alloca ptr, align 8
  %7 = alloca i32, align 4
  %8 = alloca i32, align 4
  %9 = alloca i32, align 4
  %10 = alloca %"class.duckdb_re2::StringPiece", align 8
  store ptr %0, ptr %5, align 8, !tbaa !12
  store ptr %1, ptr %6, align 8, !tbaa !181
  store i32 %2, ptr %7, align 4, !tbaa !3
  call void @llvm.lifetime.start.p0(i64 4, ptr %8) #19
  store i32 0, ptr %8, align 4, !tbaa !3
  br label %11

11:                                               ; preds = %31, %3
  %12 = load i32, ptr %8, align 4, !tbaa !3
  %13 = load i32, ptr %7, align 4, !tbaa !3
  %14 = icmp slt i32 %12, %13
  br i1 %14, label %16, label %15

15:                                               ; preds = %11
  store i32 2, ptr %9, align 4
  br label %34

16:                                               ; preds = %11
  call void @llvm.lifetime.start.p0(i64 16, ptr %10) #19
  %17 = load ptr, ptr %6, align 8, !tbaa !181
  %18 = load i32, ptr %8, align 4, !tbaa !3
  %19 = sext i32 %18 to i64
  %20 = getelementptr inbounds %"struct.duckdb_re2::UGroup", ptr %17, i64 %19
  %21 = getelementptr inbounds nuw %"struct.duckdb_re2::UGroup", ptr %20, i32 0, i32 0
  %22 = load ptr, ptr %21, align 8, !tbaa !340
  call void @_ZN10duckdb_re211StringPieceC2EPKc(ptr noundef nonnull align 8 dereferenceable(16) %10, ptr noundef %22)
  %23 = load ptr, ptr %5, align 8, !tbaa !12
  %24 = call noundef zeroext i1 @_ZN10duckdb_re2eqERKNS_11StringPieceES2_(ptr noundef nonnull align 8 dereferenceable(16) %10, ptr noundef nonnull align 8 dereferenceable(16) %23)
  call void @llvm.lifetime.end.p0(i64 16, ptr %10) #19
  br i1 %24, label %25, label %30

25:                                               ; preds = %16
  %26 = load ptr, ptr %6, align 8, !tbaa !181
  %27 = load i32, ptr %8, align 4, !tbaa !3
  %28 = sext i32 %27 to i64
  %29 = getelementptr inbounds %"struct.duckdb_re2::UGroup", ptr %26, i64 %28
  store ptr %29, ptr %4, align 8
  store i32 1, ptr %9, align 4
  br label %34

30:                                               ; preds = %16
  br label %31

31:                                               ; preds = %30
  %32 = load i32, ptr %8, align 4, !tbaa !3
  %33 = add nsw i32 %32, 1
  store i32 %33, ptr %8, align 4, !tbaa !3
  br label %11, !llvm.loop !341

34:                                               ; preds = %25, %15
  call void @llvm.lifetime.end.p0(i64 4, ptr %8) #19
  %35 = load i32, ptr %9, align 4
  switch i32 %35, label %39 [
    i32 2, label %36
    i32 1, label %37
  ]

36:                                               ; preds = %34
  store ptr null, ptr %4, align 8
  br label %37

37:                                               ; preds = %36, %34
  %38 = load ptr, ptr %4, align 8
  ret ptr %38

39:                                               ; preds = %34
  unreachable
}

; Function Attrs: mustprogress nounwind uwtable
define linkonce_odr hidden void @_ZN10duckdb_re211StringPiece13remove_prefixEm(ptr noundef nonnull align 8 dereferenceable(16) %0, i64 noundef %1) #0 comdat align 2 {
  %3 = alloca ptr, align 8
  %4 = alloca i64, align 8
  store ptr %0, ptr %3, align 8, !tbaa !12
  store i64 %1, ptr %4, align 8, !tbaa !24
  %5 = load ptr, ptr %3, align 8
  %6 = load i64, ptr %4, align 8, !tbaa !24
  %7 = getelementptr inbounds nuw %"class.duckdb_re2::StringPiece", ptr %5, i32 0, i32 0
  %8 = load ptr, ptr %7, align 8, !tbaa !116
  %9 = getelementptr inbounds nuw i8, ptr %8, i64 %6
  store ptr %9, ptr %7, align 8, !tbaa !116
  %10 = load i64, ptr %4, align 8, !tbaa !24
  %11 = getelementptr inbounds nuw %"class.duckdb_re2::StringPiece", ptr %5, i32 0, i32 1
  %12 = load i64, ptr %11, align 8, !tbaa !117
  %13 = sub i64 %12, %10
  store i64 %13, ptr %11, align 8, !tbaa !117
  ret void
}

; Function Attrs: mustprogress uwtable
define internal noundef ptr @_ZN10duckdb_re2L15LookupPerlGroupERKNS_11StringPieceE(ptr noundef nonnull align 8 dereferenceable(16) %0) #1 {
  %2 = alloca ptr, align 8
  store ptr %0, ptr %2, align 8, !tbaa !12
  %3 = load ptr, ptr %2, align 8, !tbaa !12
  %4 = load i32, ptr @_ZN10duckdb_re215num_perl_groupsE, align 4, !tbaa !3
  %5 = call noundef ptr @_ZN10duckdb_re2L11LookupGroupERKNS_11StringPieceEPKNS_6UGroupEi(ptr noundef nonnull align 8 dereferenceable(16) %3, ptr noundef @_ZN10duckdb_re211perl_groupsE, i32 noundef %4)
  ret ptr %5
}

; Function Attrs: mustprogress nounwind uwtable
define linkonce_odr hidden void @_ZN10duckdb_re211StringPieceC2EPKcm(ptr noundef nonnull align 8 dereferenceable(16) %0, ptr noundef %1, i64 noundef %2) unnamed_addr #0 comdat align 2 {
  %4 = alloca ptr, align 8
  %5 = alloca ptr, align 8
  %6 = alloca i64, align 8
  store ptr %0, ptr %4, align 8, !tbaa !12
  store ptr %1, ptr %5, align 8, !tbaa !23
  store i64 %2, ptr %6, align 8, !tbaa !24
  %7 = load ptr, ptr %4, align 8
  %8 = getelementptr inbounds nuw %"class.duckdb_re2::StringPiece", ptr %7, i32 0, i32 0
  %9 = load ptr, ptr %5, align 8, !tbaa !23
  store ptr %9, ptr %8, align 8, !tbaa !116
  %10 = getelementptr inbounds nuw %"class.duckdb_re2::StringPiece", ptr %7, i32 0, i32 1
  %11 = load i64, ptr %6, align 8, !tbaa !24
  store i64 %11, ptr %10, align 8, !tbaa !117
  ret void
}

; Function Attrs: mustprogress nounwind uwtable
define linkonce_odr hidden noundef ptr @_ZNK10duckdb_re211StringPiece4dataEv(ptr noundef nonnull align 8 dereferenceable(16) %0) #0 comdat align 2 {
  %2 = alloca ptr, align 8
  store ptr %0, ptr %2, align 8, !tbaa !12
  %3 = load ptr, ptr %2, align 8
  %4 = getelementptr inbounds nuw %"class.duckdb_re2::StringPiece", ptr %3, i32 0, i32 0
  %5 = load ptr, ptr %4, align 8, !tbaa !116
  ret ptr %5
}

; Function Attrs: mustprogress nounwind uwtable
define linkonce_odr hidden noundef nonnull align 1 dereferenceable(1) ptr @_ZNK10duckdb_re211StringPieceixEm(ptr noundef nonnull align 8 dereferenceable(16) %0, i64 noundef %1) #0 comdat align 2 {
  %3 = alloca ptr, align 8
  %4 = alloca i64, align 8
  store ptr %0, ptr %3, align 8, !tbaa !12
  store i64 %1, ptr %4, align 8, !tbaa !24
  %5 = load ptr, ptr %3, align 8
  %6 = getelementptr inbounds nuw %"class.duckdb_re2::StringPiece", ptr %5, i32 0, i32 0
  %7 = load ptr, ptr %6, align 8, !tbaa !116
  %8 = load i64, ptr %4, align 8, !tbaa !24
  %9 = getelementptr inbounds nuw i8, ptr %7, i64 %8
  ret ptr %9
}

; Function Attrs: mustprogress nounwind uwtable
define linkonce_odr hidden noundef i64 @_ZNK10duckdb_re211StringPiece4sizeEv(ptr noundef nonnull align 8 dereferenceable(16) %0) #0 comdat align 2 {
  %2 = alloca ptr, align 8
  store ptr %0, ptr %2, align 8, !tbaa !12
  %3 = load ptr, ptr %2, align 8
  %4 = getelementptr inbounds nuw %"class.duckdb_re2::StringPiece", ptr %3, i32 0, i32 1
  %5 = load i64, ptr %4, align 8, !tbaa !117
  ret i64 %5
}

; Function Attrs: inlinehint mustprogress nounwind uwtable
define linkonce_odr hidden noundef i32 @_ZN10duckdb_re2anENS_6Regexp10ParseFlagsES1_(i32 noundef %0, i32 noundef %1) #3 comdat {
  %3 = alloca i32, align 4
  %4 = alloca i32, align 4
  store i32 %0, ptr %3, align 4, !tbaa !10
  store i32 %1, ptr %4, align 4, !tbaa !10
  %5 = load i32, ptr %3, align 4, !tbaa !10
  %6 = load i32, ptr %4, align 4, !tbaa !10
  %7 = and i32 %5, %6
  ret i32 %7
}

; Function Attrs: mustprogress uwtable
define hidden noundef ptr @_ZN10duckdb_re222MaybeParsePerlCCEscapeEPNS_11StringPieceENS_6Regexp10ParseFlagsE(ptr noundef %0, i32 noundef %1) #1 {
  %3 = alloca ptr, align 8
  %4 = alloca ptr, align 8
  %5 = alloca i32, align 4
  %6 = alloca %"class.duckdb_re2::StringPiece", align 8
  %7 = alloca ptr, align 8
  %8 = alloca i32, align 4
  store ptr %0, ptr %4, align 8, !tbaa !12
  store i32 %1, ptr %5, align 4, !tbaa !10
  %9 = load i32, ptr %5, align 4, !tbaa !10
  %10 = call noundef i32 @_ZN10duckdb_re2anENS_6Regexp10ParseFlagsES1_(i32 noundef %9, i32 noundef 128)
  %11 = icmp ne i32 %10, 0
  br i1 %11, label %13, label %12

12:                                               ; preds = %2
  store ptr null, ptr %3, align 8
  br label %36

13:                                               ; preds = %2
  %14 = load ptr, ptr %4, align 8, !tbaa !12
  %15 = call noundef i64 @_ZNK10duckdb_re211StringPiece4sizeEv(ptr noundef nonnull align 8 dereferenceable(16) %14)
  %16 = icmp ult i64 %15, 2
  br i1 %16, label %23, label %17

17:                                               ; preds = %13
  %18 = load ptr, ptr %4, align 8, !tbaa !12
  %19 = call noundef nonnull align 1 dereferenceable(1) ptr @_ZNK10duckdb_re211StringPieceixEm(ptr noundef nonnull align 8 dereferenceable(16) %18, i64 noundef 0)
  %20 = load i8, ptr %19, align 1, !tbaa !33
  %21 = sext i8 %20 to i32
  %22 = icmp ne i32 %21, 92
  br i1 %22, label %23, label %24

23:                                               ; preds = %17, %13
  store ptr null, ptr %3, align 8
  br label %36

24:                                               ; preds = %17
  call void @llvm.lifetime.start.p0(i64 16, ptr %6) #19
  %25 = load ptr, ptr %4, align 8, !tbaa !12
  %26 = call noundef ptr @_ZNK10duckdb_re211StringPiece4dataEv(ptr noundef nonnull align 8 dereferenceable(16) %25)
  call void @_ZN10duckdb_re211StringPieceC2EPKcm(ptr noundef nonnull align 8 dereferenceable(16) %6, ptr noundef %26, i64 noundef 2)
  call void @llvm.lifetime.start.p0(i64 8, ptr %7) #19
  %27 = call noundef ptr @_ZN10duckdb_re2L15LookupPerlGroupERKNS_11StringPieceE(ptr noundef nonnull align 8 dereferenceable(16) %6)
  store ptr %27, ptr %7, align 8, !tbaa !181
  %28 = load ptr, ptr %7, align 8, !tbaa !181
  %29 = icmp eq ptr %28, null
  br i1 %29, label %30, label %31

30:                                               ; preds = %24
  store ptr null, ptr %3, align 8
  store i32 1, ptr %8, align 4
  br label %35

31:                                               ; preds = %24
  %32 = load ptr, ptr %4, align 8, !tbaa !12
  %33 = call noundef i64 @_ZNK10duckdb_re211StringPiece4sizeEv(ptr noundef nonnull align 8 dereferenceable(16) %6)
  call void @_ZN10duckdb_re211StringPiece13remove_prefixEm(ptr noundef nonnull align 8 dereferenceable(16) %32, i64 noundef %33)
  %34 = load ptr, ptr %7, align 8, !tbaa !181
  store ptr %34, ptr %3, align 8
  store i32 1, ptr %8, align 4
  br label %35

35:                                               ; preds = %31, %30
  call void @llvm.lifetime.end.p0(i64 8, ptr %7) #19
  call void @llvm.lifetime.end.p0(i64 16, ptr %6) #19
  br label %36

36:                                               ; preds = %35, %23, %12
  %37 = load ptr, ptr %3, align 8
  ret ptr %37
}