; Function Attrs: mustprogress nofree nounwind memory(read, argmem: readwrite, inaccessiblemem: none) uwtable
define hidden noundef ptr @_ZN10duckdb_re222MaybeParsePerlCCEscapeEPNS_11StringPieceENS_6Regexp10ParseFlagsE(ptr noundef captures(none) %0, i32 noundef %1) local_unnamed_addr #17 {
  %3 = and i32 %1, 128
  %.not = icmp eq i32 %3, 0
  br i1 %.not, label %_ZN10duckdb_re2L15LookupPerlGroupERKNS_11StringPieceE.exit.thread, label %4

4:                                                ; preds = %2
  %5 = getelementptr inbounds nuw i8, ptr %0, i64 8
  %6 = load i64, ptr %5, align 8, !tbaa !97
  %7 = icmp ult i64 %6, 2
  br i1 %7, label %_ZN10duckdb_re2L15LookupPerlGroupERKNS_11StringPieceE.exit.thread, label %8

8:                                                ; preds = %4
  %9 = load ptr, ptr %0, align 8, !tbaa !93
  %10 = load i8, ptr %9, align 1, !tbaa !27
  %.not8 = icmp eq i8 %10, 92
  br i1 %.not8, label %11, label %_ZN10duckdb_re2L15LookupPerlGroupERKNS_11StringPieceE.exit.thread

11:                                               ; preds = %8
  %12 = load i32, ptr @_ZN10duckdb_re215num_perl_groupsE, align 4, !tbaa !3
  %.not4.i.i = icmp sgt i32 %12, 0
  br i1 %.not4.i.i, label %.lr.ph.preheader.i.i, label %_ZN10duckdb_re2L15LookupPerlGroupERKNS_11StringPieceE.exit.thread

.lr.ph.preheader.i.i:                             ; preds = %11
  %wide.trip.count.i.i = zext nneg i32 %12 to i64
  br label %.lr.ph.i.i

.lr.ph.i.i:                                       ; preds = %.lr.ph.preheader.i.i, %_ZN10duckdb_re2eqERKNS_11StringPieceES2_.exit.thread2.i.i
  %indvars.iv.i.i = phi i64 [ %indvars.iv.next.i.i, %_ZN10duckdb_re2eqERKNS_11StringPieceES2_.exit.thread2.i.i ], [ 0, %.lr.ph.preheader.i.i ]
  %13 = getelementptr inbounds nuw %"struct.duckdb_re2::UGroup", ptr @_ZN10duckdb_re211perl_groupsE, i64 %indvars.iv.i.i
  %14 = load ptr, ptr %13, align 8, !tbaa !180
  %15 = icmp eq ptr %14, null
  br i1 %15, label %_ZN10duckdb_re2eqERKNS_11StringPieceES2_.exit.thread2.i.i, label %_ZN10duckdb_re211StringPieceC2EPKc.exit.i.i

_ZN10duckdb_re211StringPieceC2EPKc.exit.i.i:      ; preds = %.lr.ph.i.i
  %16 = tail call i64 @strlen(ptr noundef nonnull dereferenceable(1) %14) #35
  %.not.i.i.i = icmp eq i64 %16, 2
  br i1 %.not.i.i.i, label %17, label %_ZN10duckdb_re2eqERKNS_11StringPieceES2_.exit.thread2.i.i

17:                                               ; preds = %_ZN10duckdb_re211StringPieceC2EPKc.exit.i.i
  %18 = icmp eq ptr %14, %9
  br i1 %18, label %_ZN10duckdb_re2L15LookupPerlGroupERKNS_11StringPieceE.exit, label %_ZN10duckdb_re2eqERKNS_11StringPieceES2_.exit.i.i

_ZN10duckdb_re2eqERKNS_11StringPieceES2_.exit.i.i: ; preds = %17
  %bcmp.i.i.i = tail call i32 @bcmp(ptr noundef nonnull dereferenceable(2) %14, ptr noundef nonnull readonly dereferenceable(2) %9, i64 2)
  %19 = icmp eq i32 %bcmp.i.i.i, 0
  br i1 %19, label %_ZN10duckdb_re2L15LookupPerlGroupERKNS_11StringPieceE.exit, label %_ZN10duckdb_re2eqERKNS_11StringPieceES2_.exit.thread2.i.i

_ZN10duckdb_re2eqERKNS_11StringPieceES2_.exit.thread2.i.i: ; preds = %.lr.ph.i.i, %_ZN10duckdb_re2eqERKNS_11StringPieceES2_.exit.i.i, %_ZN10duckdb_re211StringPieceC2EPKc.exit.i.i
  %indvars.iv.next.i.i = add nuw nsw i64 %indvars.iv.i.i, 1
  %exitcond.not.i.i = icmp eq i64 %indvars.iv.next.i.i, %wide.trip.count.i.i
  br i1 %exitcond.not.i.i, label %_ZN10duckdb_re2L15LookupPerlGroupERKNS_11StringPieceE.exit.thread, label %.lr.ph.i.i, !llvm.loop !184

_ZN10duckdb_re2L15LookupPerlGroupERKNS_11StringPieceE.exit: ; preds = %_ZN10duckdb_re2eqERKNS_11StringPieceES2_.exit.i.i, %17
  %20 = getelementptr inbounds nuw i8, ptr %9, i64 2
  store ptr %20, ptr %0, align 8, !tbaa !93
  %21 = add i64 %6, -2
  store i64 %21, ptr %5, align 8, !tbaa !97
  br label %_ZN10duckdb_re2L15LookupPerlGroupERKNS_11StringPieceE.exit.thread

_ZN10duckdb_re2L15LookupPerlGroupERKNS_11StringPieceE.exit.thread: ; preds = %_ZN10duckdb_re2eqERKNS_11StringPieceES2_.exit.thread2.i.i, %11, %_ZN10duckdb_re2L15LookupPerlGroupERKNS_11StringPieceE.exit, %4, %8, %2
  %.0 = phi ptr [ null, %2 ], [ null, %8 ], [ null, %4 ], [ %13, %_ZN10duckdb_re2L15LookupPerlGroupERKNS_11StringPieceE.exit ], [ null, %11 ], [ null, %_ZN10duckdb_re2eqERKNS_11StringPieceES2_.exit.thread2.i.i ]
  ret ptr %.0
}